(lp0
(lp1
I2
aI3
aI4
aI5
aI6
aI7
aI8
aI9
aI10
aa(lp2
F1.4142136399046588
aF1.8284272088868145
aF2.2426406969915584
aF2.656854253336312
aF3.0710678163063214
aF3.4852813765829516
aF3.8994949390655798
aF4.3137085070267975
aF4.7279220649254565
aa.