(lp0
(lp1
I2
aI3
aI4
aI5
aI6
aI7
aI8
aI9
aI10
aa(lp2
F1.4142000000000001
aF1.6666680000000003
aF1.9235920000000002
aF2.1777000000000006
aF2.3175119999999994
aF2.4340540000000015
aF2.62096
aF2.6999999999999993
aF2.9751999999999974
aa.