(lp0
(lp1
I0
aF0.1
aF0.2
aF0.30000000000000004
aF0.4
aF0.5
aF0.6
aF0.7
aF0.7999999999999999
aF0.8999999999999999
aF0.9999999999999999
aF1.0999999999999999
aF1.2
aF1.3
aF1.4000000000000001
aF1.5000000000000002
aF1.6000000000000003
aF1.7000000000000004
aF1.8000000000000005
aF1.9000000000000006
aF2.0000000000000004
aF2.1000000000000005
aF2.2000000000000006
aF2.3000000000000007
aF2.400000000000001
aF2.500000000000001
aF2.600000000000001
aF2.700000000000001
aF2.800000000000001
aF2.9000000000000012
aF3.0000000000000013
aF3.1000000000000014
aF3.2000000000000015
aF3.3000000000000016
aF3.4000000000000017
aF3.5000000000000018
aF3.600000000000002
aF3.700000000000002
aF3.800000000000002
aF3.900000000000002
aF3.9999
aa(lp2
F0.8535533898832162
aF0.8535533894136514
aF0.8535533894965321
aF0.8535533900430188
aF0.8535533894488037
aF0.8535533899951806
aF0.8535533899493217
aF0.8535533895126365
aF0.8535533901111204
aF0.8535533898348564
aF0.8535533894915074
aF0.8535533905271526
aF0.8535533905092891
aF0.8535533904981831
aF0.8535533905079238
aF0.8535533898281547
aF0.8535533898584653
aF0.8535533899472079
aF0.8535533900318868
aF0.8535533898647384
aF0.85355339054791
aF0.853553390546455
aF0.8535533898757297
aF0.853553390460297
aF0.8535533902417818
aF0.8535533900906089
aF0.8535533903169629
aF0.8535533904624795
aF0.8535533905322321
aF0.8443744327625538
aF0.8307189139021691
aF0.8159806166657643
aF0.8000000000634752
aF0.782566363947426
aF0.7633913439308414
aF0.7420614591229195
aF0.7179449471238873
aF0.6899835519166868
aF0.656124950832333
aF0.6111024320678717
aF0.5035355158546898
aa.
