(lp0
(lp1
I0
aF0.001
aF0.002
aF0.003
aF0.004
aF0.005
aF0.006
aF0.007
aF0.008
aF0.009000000000000001
aF0.010000000000000002
aF0.011000000000000003
aF0.012000000000000004
aF0.013000000000000005
aF0.014000000000000005
aF0.015000000000000006
aF0.016000000000000007
aF0.017000000000000008
aF0.01800000000000001
aF0.01900000000000001
aF0.02000000000000001
aF0.02100000000000001
aF0.022000000000000013
aF0.023000000000000013
aF0.024000000000000014
aF0.025000000000000015
aF0.026000000000000016
aF0.027000000000000017
aF0.028000000000000018
aF0.02900000000000002
aF0.03000000000000002
aF0.03100000000000002
aF0.03200000000000002
aF0.03300000000000002
aF0.03400000000000002
aF0.035000000000000024
aF0.036000000000000025
aF0.037000000000000026
aF0.03800000000000003
aF0.03900000000000003
aF0.04000000000000003
aF0.04100000000000003
aF0.04200000000000003
aF0.04300000000000003
aF0.04400000000000003
aF0.04500000000000003
aF0.046000000000000034
aF0.047000000000000035
aF0.048000000000000036
aF0.04900000000000004
aF0.05000000000000004
aF0.05100000000000004
aF0.05200000000000004
aF0.05300000000000004
aF0.05400000000000004
aF0.05500000000000004
aF0.05600000000000004
aF0.057000000000000044
aF0.058000000000000045
aF0.059000000000000045
aF0.060000000000000046
aF0.06100000000000005
aF0.06200000000000005
aF0.06300000000000004
aF0.06400000000000004
aF0.06500000000000004
aF0.06600000000000004
aF0.06700000000000005
aF0.06800000000000005
aF0.06900000000000005
aF0.07000000000000005
aF0.07100000000000005
aF0.07200000000000005
aF0.07300000000000005
aF0.07400000000000005
aF0.07500000000000005
aF0.07600000000000005
aF0.07700000000000005
aF0.07800000000000006
aF0.07900000000000006
aF0.08000000000000006
aF0.08100000000000006
aF0.08200000000000006
aF0.08300000000000006
aF0.08400000000000006
aF0.08500000000000006
aF0.08600000000000006
aF0.08700000000000006
aF0.08800000000000006
aF0.08900000000000007
aF0.09000000000000007
aF0.09100000000000007
aF0.09200000000000007
aF0.09300000000000007
aF0.09400000000000007
aF0.09500000000000007
aF0.09600000000000007
aF0.09700000000000007
aF0.09800000000000007
aF0.09900000000000007
aF0.10000000000000007
aF0.10100000000000008
aF0.10200000000000008
aF0.10300000000000008
aF0.10400000000000008
aF0.10500000000000008
aF0.10600000000000008
aF0.10700000000000008
aF0.10800000000000008
aF0.10900000000000008
aF0.11000000000000008
aF0.11100000000000008
aF0.11200000000000009
aF0.11300000000000009
aF0.11400000000000009
aF0.11500000000000009
aF0.11600000000000009
aF0.11700000000000009
aF0.11800000000000009
aF0.11900000000000009
aF0.12000000000000009
aF0.1210000000000001
aF0.1220000000000001
aF0.1230000000000001
aF0.1240000000000001
aF0.12500000000000008
aF0.12600000000000008
aF0.12700000000000009
aF0.12800000000000009
aF0.1290000000000001
aF0.1300000000000001
aF0.1310000000000001
aF0.1320000000000001
aF0.1330000000000001
aF0.1340000000000001
aF0.1350000000000001
aF0.1360000000000001
aF0.1370000000000001
aF0.1380000000000001
aF0.1390000000000001
aF0.1400000000000001
aF0.1410000000000001
aF0.1420000000000001
aF0.1430000000000001
aF0.1440000000000001
aF0.1450000000000001
aF0.1460000000000001
aF0.1470000000000001
aF0.1480000000000001
aF0.1490000000000001
aF0.1500000000000001
aF0.1510000000000001
aF0.1520000000000001
aF0.1530000000000001
aF0.1540000000000001
aF0.1550000000000001
aF0.1560000000000001
aF0.1570000000000001
aF0.1580000000000001
aF0.1590000000000001
aF0.16000000000000011
aF0.16100000000000012
aF0.16200000000000012
aF0.16300000000000012
aF0.16400000000000012
aF0.16500000000000012
aF0.16600000000000012
aF0.16700000000000012
aF0.16800000000000012
aF0.16900000000000012
aF0.17000000000000012
aF0.17100000000000012
aF0.17200000000000013
aF0.17300000000000013
aF0.17400000000000013
aF0.17500000000000013
aF0.17600000000000013
aF0.17700000000000013
aF0.17800000000000013
aF0.17900000000000013
aF0.18000000000000013
aF0.18100000000000013
aF0.18200000000000013
aF0.18300000000000013
aF0.18400000000000014
aF0.18500000000000014
aF0.18600000000000014
aF0.18700000000000014
aF0.18800000000000014
aF0.18900000000000014
aF0.19000000000000014
aF0.19100000000000014
aF0.19200000000000014
aF0.19300000000000014
aF0.19400000000000014
aF0.19500000000000015
aF0.19600000000000015
aF0.19700000000000015
aF0.19800000000000015
aF0.19900000000000015
aF0.20000000000000015
aF0.20100000000000015
aF0.20200000000000015
aF0.20300000000000015
aF0.20400000000000015
aF0.20500000000000015
aF0.20600000000000016
aF0.20700000000000016
aF0.20800000000000016
aF0.20900000000000016
aF0.21000000000000016
aF0.21100000000000016
aF0.21200000000000016
aF0.21300000000000016
aF0.21400000000000016
aF0.21500000000000016
aF0.21600000000000016
aF0.21700000000000016
aF0.21800000000000017
aF0.21900000000000017
aF0.22000000000000017
aF0.22100000000000017
aF0.22200000000000017
aF0.22300000000000017
aF0.22400000000000017
aF0.22500000000000017
aF0.22600000000000017
aF0.22700000000000017
aF0.22800000000000017
aF0.22900000000000018
aF0.23000000000000018
aF0.23100000000000018
aF0.23200000000000018
aF0.23300000000000018
aF0.23400000000000018
aF0.23500000000000018
aF0.23600000000000018
aF0.23700000000000018
aF0.23800000000000018
aF0.23900000000000018
aF0.24000000000000019
aF0.2410000000000002
aF0.2420000000000002
aF0.2430000000000002
aF0.2440000000000002
aF0.2450000000000002
aF0.2460000000000002
aF0.2470000000000002
aF0.2480000000000002
aF0.2490000000000002
aF0.25000000000000017
aF0.25100000000000017
aF0.25200000000000017
aF0.25300000000000017
aF0.25400000000000017
aF0.25500000000000017
aF0.25600000000000017
aF0.2570000000000002
aF0.2580000000000002
aF0.2590000000000002
aF0.2600000000000002
aF0.2610000000000002
aF0.2620000000000002
aF0.2630000000000002
aF0.2640000000000002
aF0.2650000000000002
aF0.2660000000000002
aF0.2670000000000002
aF0.2680000000000002
aF0.2690000000000002
aF0.2700000000000002
aF0.2710000000000002
aF0.2720000000000002
aF0.2730000000000002
aF0.2740000000000002
aF0.2750000000000002
aF0.2760000000000002
aF0.2770000000000002
aF0.2780000000000002
aF0.2790000000000002
aF0.2800000000000002
aF0.2810000000000002
aF0.2820000000000002
aF0.2830000000000002
aF0.2840000000000002
aF0.2850000000000002
aF0.2860000000000002
aF0.2870000000000002
aF0.2880000000000002
aF0.2890000000000002
aF0.2900000000000002
aF0.2910000000000002
aF0.2920000000000002
aF0.2930000000000002
aF0.2940000000000002
aF0.2950000000000002
aF0.2960000000000002
aF0.2970000000000002
aF0.2980000000000002
aF0.2990000000000002
aF0.3000000000000002
aF0.3010000000000002
aF0.3020000000000002
aF0.3030000000000002
aF0.3040000000000002
aF0.3050000000000002
aF0.3060000000000002
aF0.3070000000000002
aF0.3080000000000002
aF0.3090000000000002
aF0.3100000000000002
aF0.3110000000000002
aF0.3120000000000002
aF0.3130000000000002
aF0.3140000000000002
aF0.3150000000000002
aF0.3160000000000002
aF0.3170000000000002
aF0.3180000000000002
aF0.31900000000000023
aF0.32000000000000023
aF0.32100000000000023
aF0.32200000000000023
aF0.32300000000000023
aF0.32400000000000023
aF0.32500000000000023
aF0.32600000000000023
aF0.32700000000000023
aF0.32800000000000024
aF0.32900000000000024
aF0.33000000000000024
aF0.33100000000000024
aF0.33200000000000024
aF0.33300000000000024
aF0.33400000000000024
aF0.33500000000000024
aF0.33600000000000024
aF0.33700000000000024
aF0.33800000000000024
aF0.33900000000000025
aF0.34000000000000025
aF0.34100000000000025
aF0.34200000000000025
aF0.34300000000000025
aF0.34400000000000025
aF0.34500000000000025
aF0.34600000000000025
aF0.34700000000000025
aF0.34800000000000025
aF0.34900000000000025
aF0.35000000000000026
aF0.35100000000000026
aF0.35200000000000026
aF0.35300000000000026
aF0.35400000000000026
aF0.35500000000000026
aF0.35600000000000026
aF0.35700000000000026
aF0.35800000000000026
aF0.35900000000000026
aF0.36000000000000026
aF0.36100000000000027
aF0.36200000000000027
aF0.36300000000000027
aF0.36400000000000027
aF0.36500000000000027
aF0.36600000000000027
aF0.36700000000000027
aF0.36800000000000027
aF0.36900000000000027
aF0.3700000000000003
aF0.3710000000000003
aF0.3720000000000003
aF0.3730000000000003
aF0.3740000000000003
aF0.3750000000000003
aF0.3760000000000003
aF0.3770000000000003
aF0.3780000000000003
aF0.3790000000000003
aF0.3800000000000003
aF0.3810000000000003
aF0.3820000000000003
aF0.3830000000000003
aF0.3840000000000003
aF0.3850000000000003
aF0.3860000000000003
aF0.3870000000000003
aF0.3880000000000003
aF0.3890000000000003
aF0.3900000000000003
aF0.3910000000000003
aF0.3920000000000003
aF0.3930000000000003
aF0.3940000000000003
aF0.3950000000000003
aF0.3960000000000003
aF0.3970000000000003
aF0.3980000000000003
aF0.3990000000000003
aF0.4000000000000003
aF0.4010000000000003
aF0.4020000000000003
aF0.4030000000000003
aF0.4040000000000003
aF0.4050000000000003
aF0.4060000000000003
aF0.4070000000000003
aF0.4080000000000003
aF0.4090000000000003
aF0.4100000000000003
aF0.4110000000000003
aF0.4120000000000003
aF0.4130000000000003
aF0.4140000000000003
aF0.4150000000000003
aF0.4160000000000003
aF0.4170000000000003
aF0.4180000000000003
aF0.4190000000000003
aF0.4200000000000003
aF0.4210000000000003
aF0.4220000000000003
aF0.4230000000000003
aF0.4240000000000003
aF0.4250000000000003
aF0.4260000000000003
aF0.4270000000000003
aF0.4280000000000003
aF0.4290000000000003
aF0.4300000000000003
aF0.4310000000000003
aF0.43200000000000033
aF0.43300000000000033
aF0.43400000000000033
aF0.43500000000000033
aF0.43600000000000033
aF0.43700000000000033
aF0.43800000000000033
aF0.43900000000000033
aF0.44000000000000034
aF0.44100000000000034
aF0.44200000000000034
aF0.44300000000000034
aF0.44400000000000034
aF0.44500000000000034
aF0.44600000000000034
aF0.44700000000000034
aF0.44800000000000034
aF0.44900000000000034
aF0.45000000000000034
aF0.45100000000000035
aF0.45200000000000035
aF0.45300000000000035
aF0.45400000000000035
aF0.45500000000000035
aF0.45600000000000035
aF0.45700000000000035
aF0.45800000000000035
aF0.45900000000000035
aF0.46000000000000035
aF0.46100000000000035
aF0.46200000000000035
aF0.46300000000000036
aF0.46400000000000036
aF0.46500000000000036
aF0.46600000000000036
aF0.46700000000000036
aF0.46800000000000036
aF0.46900000000000036
aF0.47000000000000036
aF0.47100000000000036
aF0.47200000000000036
aF0.47300000000000036
aF0.47400000000000037
aF0.47500000000000037
aF0.47600000000000037
aF0.47700000000000037
aF0.47800000000000037
aF0.47900000000000037
aF0.48000000000000037
aF0.48100000000000037
aF0.4820000000000004
aF0.4830000000000004
aF0.4840000000000004
aF0.4850000000000004
aF0.4860000000000004
aF0.4870000000000004
aF0.4880000000000004
aF0.4890000000000004
aF0.4900000000000004
aF0.4910000000000004
aF0.4920000000000004
aF0.4930000000000004
aF0.4940000000000004
aF0.4950000000000004
aF0.4960000000000004
aF0.4970000000000004
aF0.4980000000000004
aF0.4990000000000004
aF0.5000000000000003
aa(lp2
F0.9999999947223412
aF0.9992500035755145
aF0.9985000054427495
aF0.9977500056376323
aF0.9970000050369999
aF0.9962500039942922
aF0.9955000028215168
aF0.9947500023387476
aF0.9940000018522599
aF0.9932500013658956
aF0.9925000009583795
aF0.991750000699569
aF0.9910000005516445
aF0.9902500004842785
aF0.9895000004682215
aF0.9887500004778854
aF0.9880000004925023
aF0.9872500004395899
aF0.9865000002818818
aF0.9857500001353912
aF0.9850000000577652
aF0.9842500002145944
aF0.9835000003957963
aF0.9827500005441766
aF0.9820000006585445
aF0.9812500007335049
aF0.9805000007721172
aF0.979750000762206
aF0.979000000676125
aF0.9782500005548622
aF0.977500000439672
aF0.9767500004085312
aF0.9760000004245786
aF0.9752500004394118
aF0.9745000004513601
aF0.9737500004596361
aF0.9730000004638214
aF0.9722500004839604
aF0.9715000004991178
aF0.9707500005080083
aF0.9700000005097814
aF0.9692500004461531
aF0.9685000003704201
aF0.9677500003098227
aF0.9670000002616848
aF0.9662500002237902
aF0.9655000002229702
aF0.9647500002213681
aF0.9640000002196071
aF0.9632500002182469
aF0.9625000002173755
aF0.9617500002169088
aF0.961000000216879
aF0.9602500002171828
aF0.9595000002177231
aF0.9587500002184095
aF0.9580000002191666
aF0.957250000222031
aF0.9565000002280214
aF0.955750000232928
aF0.9550000002368549
aF0.9542500002398868
aF0.9535000002420974
aF0.9527500002435556
aF0.9520000002443143
aF0.9512500002444312
aF0.9505000002439461
aF0.9497500002431805
aF0.9490000002438629
aF0.9482500002439468
aF0.9475000002434664
aF0.9467500002424569
aF0.9460000002409447
aF0.9452500002389556
aF0.9445000002365244
aF0.9437500002336584
aF0.9430000002303889
aF0.9422500002267193
aF0.9415000002226351
aF0.9407500002181297
aF0.9400000002132541
aF0.939250000209541
aF0.9385000002055124
aF0.9377500002042387
aF0.9370000002044758
aF0.936250000204504
aF0.9355000002043224
aF0.9347500002039377
aF0.934000000203356
aF0.9332500002027446
aF0.9325000002023057
aF0.9317500002016488
aF0.9310000002007948
aF0.9302500001997429
aF0.9295000001985034
aF0.9287500001970717
aF0.9280000001954631
aF0.927250000193675
aF0.9265000001917183
aF0.9257500001895944
aF0.9250000001873104
aF0.9242500001848781
aF0.9235000001822975
aF0.9227500001795773
aF0.9220000001767215
aF0.921250000173741
aF0.9205000001706418
aF0.9197500001674329
aF0.9190000001641185
aF0.9182500001607042
aF0.9175000001571956
aF0.9167500001536091
aF0.916000000149943
aF0.9152500001462112
aF0.9145000001424204
aF0.9137500001385681
aF0.9130000001346656
aF0.9122500001307243
aF0.9115000001267481
aF0.9107500001227431
aF0.9100000001187191
aF0.9092500001146766
aF0.9085000001106246
aF0.9077500001075838
aF0.9070000001066498
aF0.9062500001057583
aF0.9055000001049075
aF0.9047500001040997
aF0.9040000001033357
aF0.9032500001026095
aF0.9025000001019209
aF0.9017500001012718
aF0.9010000001006641
aF0.9002500001000876
aF0.899500000099547
aF0.8987500000990426
aF0.8980000000985672
aF0.8972500000981214
aF0.896500000097705
aF0.8957500000973153
aF0.8950000000969507
aF0.8942500000966075
aF0.8935000000962863
aF0.8927500000959836
aF0.8920000000956947
aF0.8912500000954222
aF0.8905000000951616
aF0.8897500000949133
aF0.889000000094671
aF0.8882500000944371
aF0.8875000000942062
aF0.8867500000939761
aF0.8860000000937475
aF0.8852500000935215
aF0.8845000000932821
aF0.8837500000930436
aF0.8830000000927947
aF0.882250000092538
aF0.8815000000922687
aF0.880750000091985
aF0.8800000000916888
aF0.8792500000913764
aF0.8785000000910445
aF0.8777500000906947
aF0.8770000000903231
aF0.8762500000899308
aF0.8755000000895151
aF0.8747500000890773
aF0.8740000000886131
aF0.8732500000881263
aF0.8725000000876048
aF0.8717500000870602
aF0.8710000000864866
aF0.8702500000858832
aF0.869500000085249
aF0.8687500000845888
aF0.8680000000838988
aF0.8672500000831739
aF0.8665000000824234
aF0.8657500000818322
aF0.8650000000812649
aF0.8642500000806609
aF0.8635000000800153
aF0.8627500000793339
aF0.862000000078619
aF0.861250000077863
aF0.8605000000770738
aF0.8597500000762558
aF0.8590000000753879
aF0.8582500000744996
aF0.8575000000735646
aF0.8567500000726097
aF0.8560000000716146
aF0.8552500000705935
aF0.854500000069545
aF0.8537500000684655
aF0.8530000000673608
aF0.8522500000662332
aF0.8515000000650778
aF0.8507500000639082
aF0.8500000000627058
aF0.8492500000614941
aF0.8485000000602545
aF0.8477500000591089
aF0.8470000057738643
aF0.8462500000564239
aF0.8455000000550476
aF0.8447500053639485
aF0.8440000052229585
aF0.8432500052274509
aF0.8425000052475548
aF0.8417500052584369
aF0.8410000052603173
aF0.8402500052534163
aF0.8395000052379545
aF0.8387500052141578
aF0.8380000051675548
aF0.8372500050389808
aF0.836500004907759
aF0.8357500047740127
aF0.8350000046378944
aF0.8342500044995327
aF0.833500004359064
aF0.8327500042166337
aF0.8320000040723654
aF0.8312500039264006
aF0.830500003778855
aF0.8297500036298564
aF0.8290000034795216
aF0.8282500033279606
aF0.82750000317527
aF0.8267500030215309
aF0.8260000028668192
aF0.8252500027111781
aF0.8245000025926997
aF0.8237500025244583
aF0.8230000024495191
aF0.8222500023678748
aF0.8215000022795202
aF0.8207500021844815
aF0.8200000020827826
aF0.8192500019744663
aF0.818500001859591
aF0.8177500017382151
aF0.8170000017158832
aF0.8162500017122336
aF0.8155000017073031
aF0.8147500017028747
aF0.814000001696412
aF0.8132500018023182
aF0.8125000019125999
aF0.8117500020177528
aF0.8110000021178383
aF0.8102500022129173
aF0.809500002303049
aF0.8087500023882587
aF0.808000002468613
aF0.8072500025441445
aF0.8065000026148662
aF0.8057500026808309
aF0.8050000027420566
aF0.8042500027985335
aF0.8035000028503099
aF0.8027500028973642
aF0.8020000029397023
aF0.8012500029773084
aF0.8005000030101898
aF0.7997500030385947
aF0.7990000030623586
aF0.7982500030812711
aF0.7975000030952852
aF0.7967500031043717
aF0.7960000031084757
aF0.7952500031075473
aF0.794500003101573
aF0.7937500030904779
aF0.793000003074253
aF0.7922500030528405
aF0.7915000030262267
aF0.7907500029944116
aF0.7900000029573303
aF0.7892500029150386
aF0.7885000028675511
aF0.7877500028148856
aF0.7870000027571311
aF0.786250002694331
aF0.7855000026266311
aF0.784750002554156
aF0.7840000024770609
aF0.7832500023955764
aF0.7825000023099161
aF0.78175000222038
aF0.781000002132804
aF0.7802500021121652
aF0.7795000020905066
aF0.7787500020678408
aF0.778000002044183
aF0.7772500020195454
aF0.7765000019939181
aF0.775750001967289
aF0.7750000019396432
aF0.7742500019109624
aF0.7735000018811935
aF0.7727500018503086
aF0.7720000018182708
aF0.7712500017905682
aF0.7705000017832195
aF0.7697500017755936
aF0.7690000017677039
aF0.768250001759558
aF0.7675000017511455
aF0.7667500017424733
aF0.7660000017335429
aF0.765250001724366
aF0.7645000017152699
aF0.7637500017061774
aF0.7630000016968299
aF0.7622500016872336
aF0.7615000016773861
aF0.7607500016672993
aF0.7600000016569647
aF0.7592500016463857
aF0.7585000016355843
aF0.7577500016245353
aF0.7570000016132525
aF0.7562500016017434
aF0.7555000015900423
aF0.7547500015782954
aF0.754000001566329
aF0.7532500015541455
aF0.7525000015417556
aF0.7517500015291624
aF0.7510000015163643
aF0.7502500015033661
aF0.7495000014901774
aF0.7487500014768054
aF0.7480000014632456
aF0.7472500014495073
aF0.7465000014355986
aF0.7457500014215144
aF0.7450000014077296
aF0.7442500014051102
aF0.7435000014024138
aF0.7427500013996623
aF0.7420000013968525
aF0.7412500013939723
aF0.7405000013910372
aF0.7397500013880247
aF0.7390000013849458
aF0.738250001381803
aF0.7375000013785853
aF0.7367500013753027
aF0.7360000013719504
aF0.735250001368519
aF0.7345000013650215
aF0.7337500013614374
aF0.7330000013577777
aF0.7322500013540418
aF0.7315000013502223
aF0.730750001346323
aF0.730000001342338
aF0.7292500013382778
aF0.7285000013341165
aF0.7277500013298716
aF0.7270000013255342
aF0.7262500013211055
aF0.7255000013165777
aF0.724750001311958
aF0.7240000013072413
aF0.7232500013024135
aF0.7225000012974776
aF0.7217500012924413
aF0.7210000012872911
aF0.7202500012820288
aF0.7195000012766487
aF0.7187500012711516
aF0.7180000012655272
aF0.7172500012597799
aF0.7165000012539068
aF0.7157500012478888
aF0.7150000012417337
aF0.7142500012354489
aF0.7135000012290036
aF0.7127500012224071
aF0.7120000012156558
aF0.7112500012087473
aF0.7105000012016692
aF0.7097500011944153
aF0.7090000011869899
aF0.7082500011793774
aF0.7075000011715731
aF0.7067500011635706
aF0.7060000011553671
aF0.7052500011469569
aF0.7045000011383175
aF0.7037500011294623
aF0.7030000011203672
aF0.7022500011110263
aF0.7015000011014372
aF0.7007500010939999
aF0.7000000010882431
aF0.6992500010822686
aF0.6985000010760493
aF0.6977500010695868
aF0.6970000010628715
aF0.6962500010558978
aF0.6955000010494351
aF0.694750001044541
aF0.6940000010394217
aF0.6932500010342044
aF0.6925000010287441
aF0.6917500010230238
aF0.6910000010170309
aF0.6902500010107626
aF0.6895000010041852
aF0.6887500009972999
aF0.6880000009900895
aF0.6872500009825339
aF0.6865000009746194
aF0.6857500009663315
aF0.6850000009576429
aF0.6842500009485443
aF0.6835000009390083
aF0.6827500009290198
aF0.6820000009185536
aF0.6812500009075851
aF0.6805000008960922
aF0.6797500008840498
aF0.679000000871431
aF0.6782500008582037
aF0.6775000008443416
aF0.6767500008298177
aF0.6760000008145937
aF0.6752500007986365
aF0.6745000007819141
aF0.6737500007643855
aF0.6730000007460134
aF0.672250000726752
aF0.6715000007065663
aF0.6707500006853981
aF0.6700000006632069
aF0.6692500006399397
aF0.668500000615539
aF0.6677500005899505
aF0.6670000005631073
aF0.6662500005349463
aF0.6655000005053953
aF0.6647500004743805
aF0.6640000004418118
aF0.663250000407607
aF0.6625000003716666
aF0.6617500003338836
aF0.6610000002941443
aF0.6602500002523092
aF0.6595000002082425
aF0.6587500001617843
aF0.6580000001267938
aF0.6572500001013334
aF0.6565000000769855
aF0.6557500000540324
aF0.6550000000327532
aF0.6542500000134801
aF0.653499999996575
aF0.6527499999824281
aF0.6519999999714867
aF0.6512499999642172
aF0.6504999999611484
aF0.6497499999628356
aF0.6489999999698981
aF0.6482499999829849
aF0.6475000000027957
aF0.6467500000300728
aF0.6460000000655897
aF0.6452500001101661
aF0.6445000001646213
aF0.6437500002298013
aF0.6430000003065401
aF0.6422500004178718
aF0.6415000005457935
aF0.6407500006889919
aF0.6400000008477696
aF0.6392500010221026
aF0.6385000012115606
aF0.6377500014151577
aF0.6370000016311741
aF0.6362500018569097
aF0.6355000020883703
aF0.63475000231981
aF0.63400000002543
aF0.6332500000274655
aF0.6325000000291336
aF0.6317500000302001
aF0.6310000000302854
aF0.6302500000288386
aF0.6295000000249825
aF0.6287500000173131
aF0.6280000000036672
aF0.6272499999809324
aF0.6264999999451718
aF0.6257499998842379
aF0.6250000022648708
aa.