(lp0
(lp1
F0.5
aF0.51
aF0.52
aF0.53
aF0.54
aF0.55
aF0.56
aF0.5700000000000001
aF0.5800000000000001
aF0.5900000000000001
aF0.6000000000000001
aF0.6100000000000001
aF0.6200000000000001
aF0.6300000000000001
aF0.6400000000000001
aF0.6500000000000001
aF0.6600000000000001
aF0.6700000000000002
aF0.6800000000000002
aF0.6900000000000002
aF0.7000000000000002
aF0.7100000000000002
aF0.7200000000000002
aF0.7300000000000002
aF0.7400000000000002
aF0.7500000000000002
aF0.7600000000000002
aF0.7700000000000002
aF0.7800000000000002
aF0.7900000000000003
aF0.8000000000000003
aF0.8100000000000003
aF0.8200000000000003
aF0.8300000000000003
aF0.8400000000000003
aF0.8500000000000003
aF0.8600000000000003
aF0.8700000000000003
aF0.8800000000000003
aF0.8900000000000003
aF0.9000000000000004
aF0.9100000000000004
aF0.9200000000000004
aF0.9300000000000004
aF0.9400000000000004
aF0.9500000000000004
aF0.9600000000000004
aF0.9700000000000004
aF0.9800000000000004
aF0.9900000000000004
aF1.0000000000000004
aa(lp2
F0.9999999966863906
aF0.9999999940893047
aF0.9999999911039377
aF0.9999999882645991
aF0.9999999854861523
aF0.9999999822839756
aF0.9999999777144921
aF0.9999999704305516
aF0.9999999588760355
aF0.9999999994164702
aF0.9999999991776469
aF0.9999999988713724
aF0.9999999985075202
aF0.9999999981066335
aF0.9999999976984866
aF0.9999999973234723
aF0.9999999970413158
aF0.9999999969423838
aF0.9999999971377224
aF0.9999999976892875
aF0.9999999982002423
aF0.999999997369922
aF0.9999999953561219
aF0.9999999915182588
aF0.9999999814588811
aF0.9999999849898031
aF0.9799999999019587
aF0.9600000397964402
aF0.9400000661738604
aF0.920000000653491
aF0.9000000006150143
aF0.8800000005363957
aF0.8600000004389521
aF0.8400000003407719
aF0.8200000002718655
aF0.8000000002146331
aF0.7800000001712704
aF0.7600000001362484
aF0.740000000105729
aF0.7200000000774637
aF0.7000000000627273
aF0.680000000065309
aF0.6600000000724356
aF0.6400000000851993
aF0.620000000101997
aF0.6000000001290382
aF0.5800000001729033
aF0.560000000236729
aF0.5400000002964982
aF0.5200000002058334
aF0.5000000226349413
aa.