(lp0
(lp1
F0.5
aF0.51
aF0.52
aF0.53
aF0.54
aF0.55
aF0.56
aF0.5700000000000001
aF0.5800000000000001
aF0.5900000000000001
aF0.6000000000000001
aF0.6100000000000001
aF0.6200000000000001
aF0.6300000000000001
aF0.6400000000000001
aF0.6500000000000001
aF0.6600000000000001
aF0.6700000000000002
aF0.6800000000000002
aF0.6900000000000002
aF0.7000000000000002
aF0.7100000000000002
aF0.7200000000000002
aF0.7300000000000002
aF0.7400000000000002
aF0.7500000000000002
aF0.7600000000000002
aF0.7700000000000002
aF0.7800000000000002
aF0.7900000000000003
aF0.8000000000000003
aF0.8100000000000003
aF0.8200000000000003
aF0.8300000000000003
aF0.8400000000000003
aF0.8500000000000003
aF0.8600000000000003
aF0.8700000000000003
aF0.875
aa(lp2
F0.8535533902662018
aF0.8535533899906211
aF0.8535533897061403
aF0.8535533894139595
aF0.8535533893372407
aF0.8535533894835368
aF0.8535533902934493
aF0.8535533902849498
aF0.8535533898858045
aF0.8535533903450786
aF0.8535533902781549
aF0.8535533902580412
aF0.853553389354422
aF0.8535533904316923
aF0.8535533903973794
aF0.8535533902090525
aF0.8535533892923035
aF0.8535533889793143
aF0.8535533900934249
aF0.8535533903116794
aF0.853553390340497
aF0.8535533902843262
aF0.8535533892021498
aF0.8535533904008044
aF0.853553390232965
aF0.8535533902469166
aF0.8535533902786954
aF0.8533759995550396
aF0.8518625143890997
aF0.8487561476473784
aF0.8439999976842616
aF0.8375371842109518
aF0.8293108117010408
aF0.8192639972565449
aF0.8073398517334834
aF0.7934814805956556
aF0.7776319990617394
aF0.7597345172221888
aF0.74999999998945
aa.