(lp0
(lp1
F0.5
aF0.51
aF0.52
aF0.53
aF0.54
aF0.55
aF0.56
aF0.5700000000000001
aF0.5800000000000001
aF0.5900000000000001
aF0.6000000000000001
aF0.6100000000000001
aF0.6200000000000001
aF0.6300000000000001
aF0.6400000000000001
aF0.6500000000000001
aF0.6600000000000001
aF0.6700000000000002
aF0.6800000000000002
aF0.6900000000000002
aF0.7000000000000002
aF0.7100000000000002
aF0.7200000000000002
aF0.7300000000000002
aF0.7400000000000002
aF0.7500000000000002
aF0.7600000000000002
aF0.7700000000000002
aF0.7800000000000002
aF0.7818
aa(lp2
F0.8535533903003606
aF0.8535533901126904
aF0.8535533902562646
aF0.8535533904355729
aF0.853553389400757
aF0.8535533898928849
aF0.8535533901299611
aF0.8535533902375667
aF0.8535533892494483
aF0.8535533900492481
aF0.8535533900017425
aF0.8535533898409051
aF0.8535533895983004
aF0.8535533898938286
aF0.8535533901329115
aF0.8535533900797833
aF0.8535533899229693
aF0.8535533903789859
aF0.8534935150893193
aF0.8524807678568936
aF0.8499999988871467
aF0.8456465993330607
aF0.8387434203294111
aF0.8279795894577906
aF0.8103529050804872
aF0.7828287934364986
aF0.7381072827745646
aF0.668072855972666
aF0.5417629505839767
aF0.4756527340400879
aa.