(lp0
(lp1
I0
aF0.001
aF0.002
aF0.003
aF0.004
aF0.005
aF0.006
aF0.007
aF0.008
aF0.009000000000000001
aF0.010000000000000002
aF0.011000000000000003
aF0.012000000000000004
aF0.013000000000000005
aF0.014000000000000005
aF0.015000000000000006
aF0.016000000000000007
aF0.017000000000000008
aF0.01800000000000001
aF0.01900000000000001
aF0.02000000000000001
aF0.02100000000000001
aF0.022000000000000013
aF0.023000000000000013
aF0.024000000000000014
aF0.025000000000000015
aF0.026000000000000016
aF0.027000000000000017
aF0.028000000000000018
aF0.02900000000000002
aF0.03000000000000002
aF0.03100000000000002
aF0.03200000000000002
aF0.03300000000000002
aF0.03400000000000002
aF0.035000000000000024
aF0.036000000000000025
aF0.037000000000000026
aF0.03800000000000003
aF0.03900000000000003
aF0.04000000000000003
aF0.04100000000000003
aF0.04200000000000003
aF0.04300000000000003
aF0.04400000000000003
aF0.04500000000000003
aF0.046000000000000034
aF0.047000000000000035
aF0.048000000000000036
aF0.04900000000000004
aF0.05000000000000004
aF0.05100000000000004
aF0.05200000000000004
aF0.05300000000000004
aF0.05400000000000004
aF0.05500000000000004
aF0.05600000000000004
aF0.057000000000000044
aF0.058000000000000045
aF0.059000000000000045
aF0.060000000000000046
aF0.06100000000000005
aF0.06200000000000005
aF0.06300000000000004
aF0.06400000000000004
aF0.06500000000000004
aF0.06600000000000004
aF0.06700000000000005
aF0.06800000000000005
aF0.06900000000000005
aF0.07000000000000005
aF0.07100000000000005
aF0.07200000000000005
aF0.07300000000000005
aF0.07400000000000005
aF0.07500000000000005
aF0.07600000000000005
aF0.07700000000000005
aF0.07800000000000006
aF0.07900000000000006
aF0.08000000000000006
aF0.08100000000000006
aF0.08200000000000006
aF0.08300000000000006
aF0.08400000000000006
aF0.08500000000000006
aF0.08600000000000006
aF0.08700000000000006
aF0.08800000000000006
aF0.08900000000000007
aF0.09000000000000007
aF0.09100000000000007
aF0.09200000000000007
aF0.09300000000000007
aF0.09400000000000007
aF0.09500000000000007
aF0.09600000000000007
aF0.09700000000000007
aF0.09800000000000007
aF0.09900000000000007
aF0.10000000000000007
aF0.10100000000000008
aF0.10200000000000008
aF0.10300000000000008
aF0.10400000000000008
aF0.10500000000000008
aF0.10600000000000008
aF0.10700000000000008
aF0.10800000000000008
aF0.10900000000000008
aF0.11000000000000008
aF0.11100000000000008
aF0.11200000000000009
aF0.11300000000000009
aF0.11400000000000009
aF0.11500000000000009
aF0.11600000000000009
aF0.11700000000000009
aF0.11800000000000009
aF0.11900000000000009
aF0.12000000000000009
aF0.1210000000000001
aF0.1220000000000001
aF0.1230000000000001
aF0.1240000000000001
aF0.12500000000000008
aF0.12600000000000008
aF0.12700000000000009
aF0.12800000000000009
aF0.1290000000000001
aF0.1300000000000001
aF0.1310000000000001
aF0.1320000000000001
aF0.1330000000000001
aF0.1340000000000001
aF0.1350000000000001
aF0.1360000000000001
aF0.1370000000000001
aF0.1380000000000001
aF0.1390000000000001
aF0.1400000000000001
aF0.1410000000000001
aF0.1420000000000001
aF0.1430000000000001
aF0.1440000000000001
aF0.1450000000000001
aF0.1460000000000001
aF0.1470000000000001
aF0.1480000000000001
aF0.1490000000000001
aF0.1500000000000001
aF0.1510000000000001
aF0.1520000000000001
aF0.1530000000000001
aF0.1540000000000001
aF0.1550000000000001
aF0.1560000000000001
aF0.1570000000000001
aF0.1580000000000001
aF0.1590000000000001
aF0.16000000000000011
aF0.16100000000000012
aF0.16200000000000012
aF0.16300000000000012
aF0.16400000000000012
aF0.16500000000000012
aF0.16600000000000012
aF0.16700000000000012
aF0.16800000000000012
aF0.16900000000000012
aF0.17000000000000012
aF0.17100000000000012
aF0.17200000000000013
aF0.17300000000000013
aF0.17400000000000013
aF0.17500000000000013
aF0.17600000000000013
aF0.17700000000000013
aF0.17800000000000013
aF0.17900000000000013
aF0.18000000000000013
aF0.18100000000000013
aF0.18200000000000013
aF0.18300000000000013
aF0.18400000000000014
aF0.18500000000000014
aF0.18600000000000014
aF0.18700000000000014
aF0.18800000000000014
aF0.18900000000000014
aF0.19000000000000014
aF0.19100000000000014
aF0.19200000000000014
aF0.19300000000000014
aF0.19400000000000014
aF0.19500000000000015
aF0.19600000000000015
aF0.19700000000000015
aF0.19800000000000015
aF0.19900000000000015
aF0.20000000000000015
aF0.20100000000000015
aF0.20200000000000015
aF0.20300000000000015
aF0.20400000000000015
aF0.20500000000000015
aF0.20600000000000016
aF0.20700000000000016
aF0.20800000000000016
aF0.20900000000000016
aF0.21000000000000016
aF0.21100000000000016
aF0.21200000000000016
aF0.21300000000000016
aF0.21400000000000016
aF0.21500000000000016
aF0.21600000000000016
aF0.21700000000000016
aF0.21800000000000017
aF0.21900000000000017
aF0.22000000000000017
aF0.22100000000000017
aF0.22200000000000017
aF0.22300000000000017
aF0.22400000000000017
aF0.22500000000000017
aF0.22600000000000017
aF0.22700000000000017
aF0.22800000000000017
aF0.22900000000000018
aF0.23000000000000018
aF0.23100000000000018
aF0.23200000000000018
aF0.23300000000000018
aF0.23400000000000018
aF0.23500000000000018
aF0.23600000000000018
aF0.23700000000000018
aF0.23800000000000018
aF0.23900000000000018
aF0.24000000000000019
aF0.2410000000000002
aF0.2420000000000002
aF0.2430000000000002
aF0.2440000000000002
aF0.2450000000000002
aF0.2460000000000002
aF0.2470000000000002
aF0.2480000000000002
aF0.2490000000000002
aF0.25000000000000017
aF0.25100000000000017
aF0.25200000000000017
aF0.25300000000000017
aF0.25400000000000017
aF0.25500000000000017
aF0.25600000000000017
aF0.2570000000000002
aF0.2580000000000002
aF0.2590000000000002
aF0.2600000000000002
aF0.2610000000000002
aF0.2620000000000002
aF0.2630000000000002
aF0.2640000000000002
aF0.2650000000000002
aF0.2660000000000002
aF0.2670000000000002
aF0.2680000000000002
aF0.2690000000000002
aF0.2700000000000002
aF0.2710000000000002
aF0.2720000000000002
aF0.2730000000000002
aF0.2740000000000002
aF0.2750000000000002
aF0.2760000000000002
aF0.2770000000000002
aF0.2780000000000002
aF0.2790000000000002
aF0.2800000000000002
aF0.2810000000000002
aF0.2820000000000002
aF0.2830000000000002
aF0.2840000000000002
aF0.2850000000000002
aF0.2860000000000002
aF0.2870000000000002
aF0.2880000000000002
aF0.2890000000000002
aF0.2900000000000002
aF0.2910000000000002
aF0.2920000000000002
aF0.2930000000000002
aF0.2940000000000002
aF0.2950000000000002
aF0.2960000000000002
aF0.2970000000000002
aF0.2980000000000002
aF0.2990000000000002
aF0.3000000000000002
aF0.3010000000000002
aF0.3020000000000002
aF0.3030000000000002
aF0.3040000000000002
aF0.3050000000000002
aF0.3060000000000002
aF0.3070000000000002
aF0.3080000000000002
aF0.3090000000000002
aF0.3100000000000002
aF0.3110000000000002
aF0.3120000000000002
aF0.3130000000000002
aF0.3140000000000002
aF0.3150000000000002
aF0.3160000000000002
aF0.3170000000000002
aF0.3180000000000002
aF0.31900000000000023
aF0.32000000000000023
aF0.32100000000000023
aF0.32200000000000023
aF0.32300000000000023
aF0.32400000000000023
aF0.32500000000000023
aF0.32600000000000023
aF0.32700000000000023
aF0.32800000000000024
aF0.32900000000000024
aF0.33000000000000024
aF0.33100000000000024
aF0.33200000000000024
aa(lp2
F0.7500000067171263
aF0.7520000076657866
aF0.754000007665859
aF0.7560000073687523
aF0.7580000070951353
aF0.7600000068929892
aF0.762000006747471
aF0.7640000066417683
aF0.7660000065631881
aF0.7680000065026792
aF0.7700000064539195
aF0.7720000064125322
aF0.7740000064084123
aF0.7760000064574556
aF0.7780000065588939
aF0.7800000067450951
aF0.7820000070096516
aF0.7840000073325618
aF0.7860000076907389
aF0.7880000080621122
aF0.790000008426909
aF0.7920000088311645
aF0.7940000094226701
aF0.7960000099107597
aF0.7980000094632016
aF0.8000000088303135
aF0.8020000081858175
aF0.8040000078023188
aF0.806000007516132
aF0.8080000072844932
aF0.8100000071038079
aF0.8120000069689737
aF0.8140000068739442
aF0.8160000068123263
aF0.8180000067779658
aF0.8200000067654659
aF0.8220000067705723
aF0.8240000067903894
aF0.8260000068233808
aF0.8280000068485933
aF0.8300000068586761
aF0.832000006862044
aF0.8340000068594408
aF0.8360000068517399
aF0.8380000068399186
aF0.8400000068250165
aF0.8420000068080997
aF0.8440000067902095
aF0.846000006772315
aF0.8480000067732839
aF0.8500000070130114
aF0.8520000081348518
aF0.8540000092447247
aF0.8560000103045514
aF0.8580000115290082
aF0.8600000086573696
aF0.862000008957075
aF0.864000009117401
aF0.8660000091872532
aF0.8680000091957255
aF0.8700000091273695
aF0.872000009640083
aF0.8740000109140367
aF0.8760000122263282
aF0.8780000133893837
aF0.8800000143310778
aF0.8820000151622499
aF0.8840000156897785
aF0.886000015690775
aF0.8880000151226425
aF0.8900000139726281
aF0.89200001221368
aF0.8940000096981884
aF0.896000006180965
aF0.8980000042625178
aF0.900000006803956
aF0.9020000105035247
aF0.9040000148589569
aF0.9060000214051253
aF0.9080000003809036
aF0.910000000594834
aF0.9120000008475793
aF0.9140000011269203
aF0.916000001417896
aF0.9180000017044123
aF0.920000001963567
aF0.9220000021586068
aF0.9240000022021438
aF0.9260000017877137
aF0.9280000007995509
aF0.9300000008853689
aF0.9320000009655751
aF0.9340000010369208
aF0.9360000011227456
aF0.9380000012617065
aF0.9400000013876397
aF0.9420000015004313
aF0.9440000016000082
aF0.9460000017670301
aF0.948000002035376
aF0.9500000023109083
aF0.9520000025949396
aF0.9540000028876687
aF0.9560000031874982
aF0.9580000034903006
aF0.960000003788523
aF0.9620000040701133
aF0.9640000043163217
aF0.9660000045023875
aF0.9680000045964947
aF0.9700000045589886
aF0.9720000043481224
aF0.9740000040012661
aF0.976000003518416
aF0.9780000028819273
aF0.9800000020756794
aF0.9820000013715672
aF0.9840000006783403
aF0.9860000008939168
aF0.9880000014810151
aF0.9900000033202793
aF0.9920000000749819
aF0.9940000001239234
aF0.99600001186008
aF0.9980000011704935
aF0.9999999986463441
aF0.9999999899693688
aF0.9999999911103886
aF0.9999999923865595
aF0.9999999909841667
aF0.9999999904727025
aF0.9999999891965925
aF0.9999999887917106
aF0.9999999890369871
aF0.9999999897006199
aF0.9999999906003926
aF0.9999999916008666
aF0.9999999926069381
aF0.9999999935562234
aF0.9999999944120327
aF0.999999995157109
aF0.9999999957881868
aF0.9999999963114106
aF0.9999999967386206
aF0.9999999970844642
aF0.999999997364273
aF0.9999999975926148
aF0.9999999977824013
aF0.9999999979450133
aF0.9999999980930372
aF0.9999999982276913
aF0.999999998353687
aF0.999999998474078
aF0.9999999985905974
aF0.999999998703789
aF0.999999998814042
aF0.9999999989207913
aF0.9999999990232604
aF0.999999999120614
aF0.9999999992120618
aF0.9999999992960522
aF0.9999999372226624
aF0.9999999436563393
aF0.9999999474020802
aF0.9999999507647029
aF0.999999954590884
aF0.9999999587347924
aF0.9999999630694587
aF0.9999999673988101
aF0.9999999712742945
aF0.9999999748994959
aF0.999999978504287
aF0.9999999820528419
aF0.9999999855238226
aF0.9999999867103284
aF0.999999986350972
aF0.9999999860274651
aF0.9999999857381257
aF0.9999999854815118
aF0.9999999852564109
aF0.9999999850618312
aF0.9999999848969958
aF0.9999999847613434
aF0.9999999846545312
aF0.9999999845763077
aF0.9999999843770869
aF0.9999999838373448
aF0.9999999832192213
aF0.9999999825170842
aF0.9999999813784108
aF0.9999999783893361
aF0.9999999727556304
aF0.9999999681165892
aF0.9999999570503346
aF0.9999999429370644
aF0.9999999283518055
aF0.9999999991367619
aF0.9999999989929683
aF0.9999999988559791
aF0.9999999987302786
aF0.9999999986186907
aF0.9999999985246878
aF0.9999999984516761
aF0.999999998402954
aF0.9999999983806793
aF0.9999999983831211
aF0.9999999982438246
aF0.9999999980843269
aF0.9999999979310568
aF0.9999999977852091
aF0.9999999976470781
aF0.9999999975171363
aF0.9999999973956839
aF0.9999999972828678
aF0.9999999971708831
aF0.9999999970333309
aF0.999999996876825
aF0.9999999966894583
aF0.999999996458101
aF0.9999999961672679
aF0.9999999957992638
aF0.9999999953345485
aF0.9999999947521545
aF0.9999999940304133
aF0.9999999931481283
aF0.9999999920858547
aF0.9999999908275307
aF0.9999999893796395
aF0.9999999877289629
aF0.9999999858822592
aF0.9999999838569023
aF0.9999999816822589
aF0.9999999794007166
aF0.9999999770684641
aF0.9999999747562178
aF0.9999999725502988
aF0.999999970554524
aF0.9999999688931207
aF0.9999999677141265
aF0.999999967191251
aF0.9999999675198764
aF0.9999999698490944
aF0.9999999742318547
aF0.9999999783536039
aF0.9999999797425273
aF0.9999999817359975
aF0.9999999827138479
aF0.9999999812567608
aF0.9999999793758609
aF0.9999999584414092
aF0.9999999989753001
aF0.9970000069306982
aF0.994000004937954
aF0.9910000091811815
aF0.9880000105076931
aF0.9850000100035636
aF0.9820000106581817
aF0.9790000123186197
aF0.9760000133827076
aF0.9730000138640954
aF0.9700000137950618
aF0.9670000132216875
aF0.9640000122085777
aF0.9610000108425955
aF0.9580000090619705
aF0.9550000071285467
aF0.9520000052328877
aF0.9490000034865326
aF0.946000002497658
aF0.9430000021348272
aF0.9400000017417132
aF0.9370000014290188
aF0.9340000011454211
aF0.9310000010115129
aF0.9280000009385259
aF0.925000000951714
aF0.9220000009363475
aF0.9190000008433576
aF0.9160000007314681
aF0.9130000006015204
aF0.9100000004662646
aF0.9070000003416865
aF0.9040000002237158
aF0.9010000001824497
aF0.8980000001533182
aF0.8950000173338998
aF0.8920000002487631
aF0.8890000002964176
aF0.8860000003731432
aF0.8830000004132623
aF0.8800000004305053
aF0.8770000004422793
aF0.8740000004493778
aF0.8710000004524195
aF0.8680000004518932
aF0.8650000004481971
aF0.8620000004416563
aF0.859000000432548
aF0.8560000004211112
aF0.8530000004075615
aF0.8500000003920823
aF0.8470000003748401
aF0.8440000003559937
aF0.8410000003356725
aF0.8380000003140029
aF0.8350000002910886
aF0.8320000002670158
aF0.82900000024185
aF0.826000000215651
aF0.8230000001884756
aF0.8200000001603934
aF0.8170000001315181
aF0.8140000001020097
aF0.8110000000994252
aF0.8080000001298878
aF0.8050000001440869
aF0.8020000001386633
aF0.7990000001110128
aF0.7960000000592093
aF0.7930000000171173
aF0.7899999999998673
aF0.7869999999821933
aF0.7839999999635947
aF0.7809999999442341
aF0.7779999999309584
aF0.7749999999161663
aF0.7719999998995641
aF0.768999999881307
aF0.7659999998516869
aF0.762999999816049
aF0.7599999998097794
aF0.7569999998020778
aF0.7539999997363339
aa.