(lp0
(lp1
I0
aF0.002
aF0.004
aF0.006
aF0.008
aF0.01
aF0.012
aF0.014
aF0.016
aF0.018000000000000002
aF0.020000000000000004
aF0.022000000000000006
aF0.024000000000000007
aF0.02600000000000001
aF0.02800000000000001
aF0.030000000000000013
aF0.032000000000000015
aF0.034000000000000016
aF0.03600000000000002
aF0.03800000000000002
aF0.04000000000000002
aF0.04200000000000002
aF0.044000000000000025
aF0.04600000000000003
aF0.04800000000000003
aF0.05000000000000003
aF0.05200000000000003
aF0.054000000000000034
aF0.056000000000000036
aF0.05800000000000004
aF0.06000000000000004
aF0.06200000000000004
aF0.06400000000000004
aF0.06600000000000004
aF0.06800000000000005
aF0.07000000000000005
aF0.07200000000000005
aF0.07400000000000005
aF0.07600000000000005
aF0.07800000000000006
aF0.08000000000000006
aF0.08200000000000006
aF0.08400000000000006
aF0.08600000000000006
aF0.08800000000000006
aF0.09000000000000007
aF0.09200000000000007
aF0.09400000000000007
aF0.09600000000000007
aF0.09800000000000007
aF0.10000000000000007
aF0.10200000000000008
aF0.10400000000000008
aF0.10600000000000008
aF0.10800000000000008
aF0.11000000000000008
aF0.11200000000000009
aF0.11400000000000009
aF0.11600000000000009
aF0.11800000000000009
aF0.12000000000000009
aF0.1220000000000001
aF0.1240000000000001
aF0.12600000000000008
aF0.12800000000000009
aF0.1300000000000001
aF0.1320000000000001
aF0.1340000000000001
aF0.1360000000000001
aF0.1380000000000001
aF0.1400000000000001
aF0.1420000000000001
aF0.1440000000000001
aF0.1460000000000001
aF0.1480000000000001
aF0.1500000000000001
aF0.1520000000000001
aF0.1540000000000001
aF0.1560000000000001
aF0.1580000000000001
aF0.16000000000000011
aF0.16200000000000012
aF0.16400000000000012
aF0.16600000000000012
aF0.16800000000000012
aF0.17000000000000012
aF0.17200000000000013
aF0.17400000000000013
aF0.17600000000000013
aF0.17800000000000013
aF0.18000000000000013
aF0.18200000000000013
aF0.18400000000000014
aF0.18600000000000014
aF0.18800000000000014
aF0.19000000000000014
aF0.19200000000000014
aF0.19400000000000014
aF0.19600000000000015
aF0.19800000000000015
aF0.20000000000000015
aF0.20200000000000015
aF0.20400000000000015
aF0.20600000000000016
aF0.20800000000000016
aF0.21000000000000016
aF0.21200000000000016
aF0.21400000000000016
aF0.21600000000000016
aF0.21800000000000017
aF0.22000000000000017
aF0.22200000000000017
aF0.22400000000000017
aF0.22600000000000017
aF0.22800000000000017
aF0.23000000000000018
aF0.23200000000000018
aF0.23400000000000018
aF0.23600000000000018
aF0.23800000000000018
aF0.24000000000000019
aF0.2420000000000002
aF0.2440000000000002
aF0.2460000000000002
aF0.2480000000000002
aF0.25000000000000017
aF0.25200000000000017
aF0.25400000000000017
aF0.25600000000000017
aF0.2580000000000002
aF0.25831
aa(lp2
F0.7500000011366016
aF0.7539369985717603
aF0.7577518183222622
aF0.7614498020301965
aF0.7650358442430657
aF0.768514430054478
aF0.7718896832960781
aF0.7751654041331327
aF0.7783451092531432
aF0.781432051832663
aF0.7844292528827754
aF0.7873395189203005
aF0.7901654687095155
aF0.7929095421431727
aF0.7955740166120088
aF0.7981610291837231
aF0.8006725782790355
aF0.8031105399093985
aF0.8054766760404704
aF0.8077726427956468
aF0.8099999996516957
aF0.8121602149931157
aF0.8142546722419649
aF0.816284680679812
aF0.818251471887683
aF0.8201562108822102
aF0.8219999986148354
aF0.8237838764169425
aF0.8255088308315549
aF0.8271757922025502
aF0.8287856430304076
aF0.8303392182840331
aF0.8318373083561257
aF0.8332806614484584
aF0.834669985751665
aF0.8360059514476957
aF0.837289192555258
aF0.8385203086467166
aF0.8396998664516163
aF0.8408284014230859
aF0.8419064188150266
aF0.8429343950201399
aF0.8439127786865964
aF0.8448419918671342
aF0.8457224299120835
aF0.8465544665277986
aF0.847338449077657
aF0.8480747026349748
aF0.8487635291507605
aF0.8494052076444639
aF0.8499999984289053
aF0.850548141062966
aF0.8510498528753866
aF0.8515053327941349
aF0.8519147606610907
aF0.8522782971527911
aF0.8525960843749036
aF0.8528682452859855
aF0.8530948878050157
aF0.8532760956378421
aF0.8534119405742658
aF0.8535024733877355
aF0.8535477323988107
aF0.8535533899990431
aF0.8535533902788282
aF0.8535533902061423
aF0.8535533890576394
aF0.853553390126861
aF0.8535533903122505
aF0.8535533904381349
aF0.8535533904170676
aF0.8535533904498578
aF0.8535533894166489
aF0.8535533902217778
aF0.853553390487566
aF0.85355339046455
aF0.8535533904403989
aF0.8535533904774647
aF0.8535533905082023
aF0.8535533904973047
aF0.8535533904736963
aF0.8535533904098385
aF0.8535533891971829
aF0.8535533899855836
aF0.8535533904199133
aF0.8535533897058809
aF0.8535533902049429
aF0.8535533902526655
aF0.8535533887583286
aF0.8535533902058023
aF0.8535533904297451
aF0.8535533902901814
aF0.8535533902676269
aF0.8535533903090227
aF0.8535533903546869
aF0.8535533903526669
aF0.8535533902836641
aF0.8535533902012176
aF0.8535533901714164
aF0.8535533902056567
aF0.853553390088128
aF0.8535533902574649
aF0.853553389224746
aF0.8535533894911335
aF0.8535533896424502
aF0.8535533905306895
aF0.8535533902353938
aF0.8535505444469811
aF0.8534999991281415
aF0.8533818642047898
aF0.8531896174962109
aF0.8529156208476856
aF0.8525508431632837
aF0.8520844693297882
aF0.8515033707607267
aF0.8507913440686217
aF0.8499279992247217
aF0.8488870800313059
aF0.8476337782738603
aF0.8461202628693476
aF0.8442776149517035
aF0.8419999994516031
aF0.8391091298716097
aF0.8352571264475976
aF0.8295451833835612
aF0.816004576741843
aF0.7902189624995911
aF0.7601962127188223
aF0.7200929116449721
aF0.6363230737655552
aF0.5987771710570168
aa.