(lp0
(lp1
F0.5
aF0.51
aF0.52
aF0.53
aF0.54
aF0.55
aF0.56
aF0.5700000000000001
aF0.5800000000000001
aF0.5900000000000001
aF0.6000000000000001
aF0.6100000000000001
aF0.6200000000000001
aF0.6300000000000001
aF0.6400000000000001
aF0.6500000000000001
aF0.6600000000000001
aF0.6700000000000002
aF0.6800000000000002
aF0.6900000000000002
aF0.7000000000000002
aF0.7100000000000002
aF0.7200000000000002
aF0.7300000000000002
aF0.7400000000000002
aF0.7500000000000002
aF0.7600000000000002
aF0.7700000000000002
aF0.7800000000000002
aF0.7900000000000003
aF0.8000000000000003
aF0.8100000000000003
aF0.8200000000000003
aF0.8300000000000003
aF0.8400000000000003
aF0.8500000000000003
aF0.8600000000000003
aF0.8700000000000003
aF0.8800000000000003
aF0.8900000000000003
aF0.9000000000000004
aF0.9100000000000004
aF0.9200000000000004
aF0.9300000000000004
aF0.9400000000000004
aF0.9500000000000004
aF0.9600000000000004
aF0.9700000000000004
aF0.9800000000000004
aF0.9900000000000004
aF1.0000000000000004
aa(lp2
F0.9999999966863917
aF0.9999999942505219
aF0.9999999913491961
aF0.9999999885136198
aF0.9999999858094037
aF0.9999999830135554
aF0.999999979722959
aF0.9999999752437757
aF0.9999999686646432
aF0.9999999589609362
aF0.9999999451507336
aF0.9999999991208253
aF0.9999999988410648
aF0.999999998769525
aF0.9999999987411068
aF0.9999999981882755
aF0.9999999971260393
aF0.9999999962060069
aF0.9999999953998543
aF0.9999999946598725
aF0.9999999939384597
aF0.9999999931587941
aF0.9999999922220806
aF0.9999999909652877
aF0.9999999891718181
aF0.9999999856791171
aF0.999999991261377
aF0.9999999786086573
aF0.9999999717827903
aF0.9999999729317955
aF0.9999999747448418
aF0.9999999641466442
aF0.999999950655163
aF0.9999999328020823
aF0.9999999991492812
aF0.9999999990375024
aF0.9999999990780551
aF0.9999999958600477
aF0.9800000013942558
aF0.9400000004822149
aF0.9000000230735391
aF0.860000019096584
aF0.8200000175128113
aF0.7800000170535937
aF0.7400000168628582
aF0.7000000165886993
aF0.660000015674667
aF0.6200000139247254
aF0.5800000113096557
aF0.5400000103003049
aF0.5000000073842448
aa.