(lp0
(lp1
I0
aF0.01
aF0.02
aF0.03
aF0.04
aF0.05
aF0.060000000000000005
aF0.07
aF0.08
aF0.09
aF0.09999999999999999
aF0.10999999999999999
aF0.11999999999999998
aF0.12999999999999998
aF0.13999999999999999
aF0.1445
aa(lp2
F0.8352410502955832
aF0.8294278099708848
aF0.8231074695412041
aF0.8162254756402194
aF0.808731740707838
aF0.8005678376947774
aF0.7916537151405535
aF0.7818911679196127
aF0.7711484301091434
aF0.759232826774404
aF0.7458434308553514
aF0.7304565948420557
aF0.7120296163705406
aF0.6880633661251014
aF0.6480713032641303
aF0.587290095568811
aa.