(lp0
(lp1
I0
aF0.01
aF0.02
aF0.03
aF0.04
aF0.05
aF0.060000000000000005
aF0.07
aF0.08
aF0.09
aF0.09999999999999999
aF0.10999999999999999
aF0.11999999999999998
aF0.12999999999999998
aF0.13999999999999999
aF0.15
aF0.16
aF0.17
aF0.18000000000000002
aF0.19000000000000003
aF0.20000000000000004
aF0.21000000000000005
aF0.22000000000000006
aF0.23000000000000007
aF0.24000000000000007
aF0.25000000000000006
aF0.26000000000000006
aF0.2700000000000001
aF0.2800000000000001
aF0.2900000000000001
aF0.3000000000000001
aF0.3100000000000001
aF0.3200000000000001
aF0.3300000000000001
aF0.34000000000000014
aF0.35000000000000014
aF0.36000000000000015
aF0.37000000000000016
aF0.38000000000000017
aF0.3900000000000002
aF0.4000000000000002
aF0.4100000000000002
aF0.4200000000000002
aF0.4300000000000002
aF0.4400000000000002
aF0.45000000000000023
aF0.46000000000000024
aF0.47000000000000025
aF0.48000000000000026
aF0.49000000000000027
aF0.5000000000000002
aF0.5100000000000002
aF0.5200000000000002
aF0.5300000000000002
aF0.5400000000000003
aF0.5500000000000003
aF0.5600000000000003
aF0.5700000000000003
aF0.5800000000000003
aF0.5900000000000003
aF0.6000000000000003
aF0.6100000000000003
aF0.6200000000000003
aF0.6300000000000003
aF0.6400000000000003
aF0.6500000000000004
aF0.6600000000000004
aF0.6700000000000004
aF0.6800000000000004
aF0.6900000000000004
aF0.7000000000000004
aF0.7100000000000004
aF0.7200000000000004
aF0.7300000000000004
aF0.7400000000000004
aF0.7500000000000004
aF0.7600000000000005
aF0.7700000000000005
aF0.7800000000000005
aF0.7900000000000005
aF0.8000000000000005
aF0.8100000000000005
aF0.8200000000000005
aF0.8300000000000005
aF0.8400000000000005
aF0.8500000000000005
aF0.8600000000000005
aF0.8700000000000006
aF0.8800000000000006
aF0.8900000000000006
aF0.9000000000000006
aF0.9100000000000006
aF0.9200000000000006
aF0.9300000000000006
aF0.9400000000000006
aF0.9500000000000006
aF0.9600000000000006
aF0.9700000000000006
aF0.9800000000000006
aF0.9900000000000007
aF1.0000000000000007
aa(lp2
csympy.core.numbers
Float
p3
((I0
S'18000000003cb1L'
p4
I-53
I53
tp5
tp6
Rp7
(dp8
S'_prec'
p9
I53
sbaF0.7499999988544886
aF0.749999999158786
aF0.7499999997712724
aF0.7499999976557659
aF0.749999996832844
aF0.7499999994288721
aF0.7499999987145576
aF0.7499999987268652
aF0.7499999989834858
aF0.7499999988632324
aF0.7499999985624741
aF0.7499999995642069
aF0.7499999997213306
aF0.7499999991195258
aF0.7499999950920562
aF0.7499999994121077
aF0.7499999978399389
aF0.7499999978791072
aF0.7499999969480887
aF0.7499999950107437
aF0.7499999981300292
aF0.7499999975904044
aF0.7499999980737191
aF0.7499999973411603
aF0.7499999973011562
aF0.749999998021285
aF0.749999998592807
aF0.7499999991560755
aF0.7499999994108061
aF0.7499999991677695
aF0.749999998659132
aF0.7499999983725625
aF0.7499999987209641
aF0.7499999973527335
aF0.7499999975105418
aF0.7499999989934081
aF0.749999998731139
aF0.7499999994426996
aF0.749999992560984
aF0.7499999950860097
aF0.7499999950345393
aF0.7499999946252539
aF0.7499999991929783
aF0.7499999992261615
aF0.7499999981863638
aF0.7499999981193596
aF0.7499999981052452
aF0.7499999956383472
aF0.7499999994092732
aF0.749999999078283
aF0.7499999995753106
aF0.7499999995944728
aF0.7499999994281106
aF0.7499999975397422
aF0.749999993929954
aF0.7499999945907667
aF0.7499999958767645
aF0.7499999971400889
aF0.7499999975472467
aF0.7499999985474675
aF0.7499999991410757
aF0.7499999984766608
aF0.7499999968857464
aF0.7499999953558674
aF0.7499999983496117
aF0.7499999983792154
aF0.7500022995962956
aF0.7500404660323284
aF0.7501361650125047
aF0.750305603673777
aF0.750568347592332
aF0.7509479147284857
aF0.7514717880821367
aF0.752170676737692
aF0.7530756604100002
aF0.7542011815367273
aF0.7555438873720675
aF0.7571125972945817
aF0.7589144527733281
aF0.7609549815380745
aF0.763238313969339
aF0.765767403442867
aF0.768544215628566
aF0.7715699257235815
aF0.7748450803368017
aF0.778369729834006
aF0.7821435742166664
aF0.7861660490065242
aF0.7904364260585146
aF0.7949538755246977
aF0.7997175467879002
aF0.804726584542071
aF0.8099801848784078
aF0.8154776128269555
aF0.8212182203190078
aF0.8272014605029874
aF0.8334268837160907
aF0.8398941560406052
aF0.8466030368854127
aF0.8535533904312345
aa.