(lp0
(lp1
F0.5
aF0.51
aF0.52
aF0.53
aF0.54
aF0.55
aF0.56
aF0.5700000000000001
aF0.5800000000000001
aF0.5900000000000001
aF0.6000000000000001
aF0.6100000000000001
aF0.6200000000000001
aF0.6300000000000001
aF0.6400000000000001
aF0.6500000000000001
aF0.6600000000000001
aF0.6700000000000002
aF0.6800000000000002
aF0.6900000000000002
aF0.7000000000000002
aF0.7100000000000002
aF0.7200000000000002
aF0.7300000000000002
aF0.7400000000000002
aF0.7500000000000002
aF0.7600000000000002
aF0.7700000000000002
aF0.7800000000000002
aF0.7900000000000003
aF0.8000000000000003
aF0.8100000000000003
aF0.8200000000000003
aF0.8300000000000003
aF0.8400000000000003
aF0.8500000000000003
aF0.8600000000000003
aF0.8700000000000003
aF0.8800000000000003
aF0.8900000000000003
aF0.9000000000000004
aF0.9100000000000004
aF0.9200000000000004
aF0.9300000000000004
aF0.9400000000000004
aF0.9500000000000004
aF0.9600000000000004
aF0.9700000000000004
aF0.9800000000000004
aF0.9900000000000004
aF1.0000000000000004
aa(lp2
F0.9999999966863916
aF0.9999999940893044
aF0.9999999911039362
aF0.9999999882645988
aF0.9999999854861525
aF0.9999999822839754
aF0.9999999777144917
aF0.9999999704305517
aF0.9999999588760355
aF0.9999999994164701
aF0.9999999991776471
aF0.9999999988713724
aF0.99999999850752
aF0.9999999981066339
aF0.9999999976984866
aF0.9999999973234719
aF0.9999999970413158
aF0.9999999969423834
aF0.999999997137721
aF0.9999999976892868
aF0.9999999982002424
aF0.9999999973699222
aF0.9999999953561218
aF0.9999999915182586
aF0.9999999814588809
aF0.999999984989804
aF0.9799999999019579
aF0.9600000397964475
aF0.9400000661738678
aF0.920000000653495
aF0.900000000615018
aF0.8800000005363998
aF0.8600000004389513
aF0.8400000003407719
aF0.8200000002718636
aF0.800000000214634
aF0.7800000001712704
aF0.7600000001362485
aF0.7400000001057293
aF0.720000000077464
aF0.7000000000627268
aF0.6800000000653089
aF0.6600000000724358
aF0.6400000000851995
aF0.6200000001019967
aF0.6000000001290378
aF0.5800000001729032
aF0.5600000002367289
aF0.540000000296498
aF0.5200000002058336
aF0.5000000226349411
aa.