(lp0
(lp1
F0.0
aF0.1
aF0.2
aF0.30000000000000004
aF0.4
aF0.5
aF0.6
aF0.7
aF0.7999999999999999
aF0.8999999999999999
aF0.9999999999999999
aF1.0999999999999999
aF1.2
aF1.3
aF1.4000000000000001
aF1.5000000000000002
aF1.6000000000000003
aF1.7000000000000004
aF1.8000000000000005
aF1.9000000000000006
aF2.0000000000000004
aF2.1000000000000005
aF2.2000000000000006
aF2.3000000000000007
aF2.400000000000001
aF2.500000000000001
aF2.600000000000001
aF2.700000000000001
aF2.800000000000001
aF2.9000000000000012
aF3.0000000000000013
aF3.1000000000000014
aF3.2000000000000015
aF3.3000000000000016
aF3.4000000000000017
aF3.5000000000000018
aF3.600000000000002
aF3.700000000000002
aF3.800000000000002
aF3.900000000000002
aF4.000000000000002
aa(lp2
F0.9999999966863802
aF0.9999999951962333
aF0.9999999929543996
aF0.9999999908160107
aF0.9999999889592793
aF0.9999999874404343
aF0.9999999862109562
aF0.9999999851276047
aF0.9999999833313153
aF0.9999999743825536
aF0.9999999577035942
aF0.9999999271306577
aF0.9999999988507422
aF0.9999999983140382
aF0.9999999976821403
aF0.9999999969668348
aF0.9999999961921063
aF0.9999999953928431
aF0.9999999946129688
aF0.9999999939070678
aF0.9999999933435192
aF0.9999999929509753
aF0.9999999927908815
aF0.9999999929523966
aF0.9999999935205691
aF0.999999993554654
aF0.9999999937599041
aF0.9999999939594276
aF0.9999999938094263
aF0.999999991704372
aF0.9999999866146905
aF0.9999999771511344
aF0.9999999608201384
aF0.9999999379471032
aF0.9999999990792898
aF0.9999999987116637
aF0.9999999982795859
aF0.9999999977957079
aF0.9999999973165261
aF0.9999999974645817
aF0.9999999989875695
aa.