(lp0
(lp1
F0.653
aF0.673
aF0.6930000000000001
aF0.7130000000000001
aF0.7330000000000001
aF0.7530000000000001
aF0.7730000000000001
aF0.7930000000000001
aF0.8130000000000002
aF0.8330000000000002
aF0.8530000000000002
aF0.8730000000000002
aF0.8930000000000002
aF0.9130000000000003
aF0.9330000000000003
aF0.9530000000000003
aF0.9730000000000003
aF0.9930000000000003
aF1.0130000000000003
aa(lp2
F0.6540000000000002
aF0.6340000000000002
aF0.6140000000000002
aF0.5960000000000002
aF0.5780000000000002
aF0.5600000000000002
aF0.5420000000000001
aF0.5260000000000001
aF0.5100000000000001
aF0.4940000000000001
aF0.4780000000000001
aF0.4640000000000001
aF0.44800000000000006
aF0.43400000000000005
aF0.42000000000000004
aF0.40800000000000003
aF0.394
aF0.382
aF0.382
aa.