(lp0
(lp1
I0
aF0.01
aF0.02
aF0.03
aF0.04
aF0.05
aF0.060000000000000005
aF0.07
aF0.08
aF0.09
aF0.09999999999999999
aF0.10999999999999999
aF0.11999999999999998
aF0.12999999999999998
aF0.13999999999999999
aF0.15
aF0.16
aF0.17
aF0.18000000000000002
aF0.19000000000000003
aF0.20000000000000004
aF0.21000000000000005
aF0.22000000000000006
aF0.23000000000000007
aF0.24000000000000007
aF0.25000000000000006
aF0.26000000000000006
aF0.2700000000000001
aF0.2800000000000001
aF0.2900000000000001
aF0.3000000000000001
aF0.3100000000000001
aF0.3200000000000001
aF0.3300000000000001
aF0.34000000000000014
aF0.35000000000000014
aF0.36000000000000015
aF0.37000000000000016
aF0.38000000000000017
aF0.3900000000000002
aF0.4000000000000002
aF0.4100000000000002
aF0.4200000000000002
aF0.4300000000000002
aF0.4400000000000002
aF0.45000000000000023
aF0.46000000000000024
aF0.47000000000000025
aF0.48000000000000026
aF0.49000000000000027
aF0.5000000000000002
aF0.5100000000000002
aF0.5200000000000002
aF0.5300000000000002
aF0.5400000000000003
aF0.5500000000000003
aF0.5600000000000003
aF0.5700000000000003
aF0.5800000000000003
aF0.5900000000000003
aF0.6000000000000003
aF0.6100000000000003
aF0.6200000000000003
aF0.6300000000000003
aF0.6400000000000003
aF0.6500000000000004
aF0.6600000000000004
aF0.6700000000000004
aF0.6800000000000004
aF0.6900000000000004
aF0.7000000000000004
aF0.7100000000000004
aF0.7200000000000004
aF0.7300000000000004
aF0.7400000000000004
aF0.7500000000000004
aF0.7600000000000005
aF0.7700000000000005
aF0.7800000000000005
aF0.7900000000000005
aF0.8000000000000005
aF0.8100000000000005
aF0.8200000000000005
aF0.8300000000000005
aF0.8400000000000005
aF0.8500000000000005
aF0.8600000000000005
aF0.8700000000000006
aF0.8800000000000006
aF0.8900000000000006
aF0.9000000000000006
aF0.9100000000000006
aF0.9200000000000006
aF0.9300000000000006
aF0.9400000000000006
aF0.9500000000000006
aF0.9600000000000006
aF0.9700000000000006
aF0.9800000000000006
aF0.9900000000000007
aF1.0000000000000007
aa(lp2
csympy.core.numbers
Float
p3
((I0
S'120000002a4607L'
p4
I-53
I53
tp5
tp6
Rp7
(dp8
S'_prec'
p9
I53
sbaF0.5625108271895398
aF0.5625435284279452
aF0.5625984594063531
aF0.5626759584372616
aF0.5627763786583625
aF0.5629000841604451
aF0.5630474379561982
aF0.5632188146265209
aF0.5634145879398955
aF0.5636351306541978
aF0.5638808223444751
aF0.5641520400068146
aF0.5644491609730387
aF0.5647725788429679
aF0.5651226608026534
aF0.5654997861540567
aF0.5659043355983959
aF0.5663366851988823
aF0.5667972065607466
aF0.5672862720622031
aF0.5678042659732239
aF0.568351541425316
aF0.5689284734696916
aF0.5695354204322679
aF0.5701727471553494
aF0.5708408126326809
aF0.571539961203979
aF0.5722705738568004
aF0.5730329870369474
aF0.5738275495563938
aF0.5746546078294268
aF0.5755145057159119
aF0.5764075825301479
aF0.5773341912193074
aF0.5782946467155328
aF0.5792892911770757
aF0.5803184609871324
aF0.5813824857339953
aF0.5824816937157525
aF0.5836164102080321
aF0.5847869555005641
aF0.5859936477804892
aF0.587236811146211
aF0.5885167605662327
aF0.5898338170174939
aF0.5911882897275866
aF0.5925804935760861
aF0.5940107437667258
aF0.5954793546529549
aF0.5969866173302012
aF0.5985328513697421
aF0.6001183711346451
aF0.6017434675633857
aF0.6034084528507104
aF0.6051136305369411
aF0.6068593009144084
aF0.6086457817349503
aF0.6104733624339442
aF0.6123423515321279
aF0.6142530537882818
aF0.6162057646198086
aF0.6182007873605917
aF0.6202384306342188
aF0.6223190036884236
aF0.6244428042747333
aF0.626610139651451
aF0.6288213136196997
aF0.6310766266034259
aF0.6333764057146118
aF0.6357209593423334
aF0.6381105921641315
aF0.640545616950106
aF0.643026352370494
aF0.6455531232885476
aF0.6481262396819086
aF0.6507460360264923
aF0.6534128481138305
aF0.6561269840188595
aF0.6588887915230481
aF0.661698605927623
aF0.6645567692549292
aF0.6674636334963874
aF0.6704195531353684
aF0.67342488970034
aF0.6764799941147714
aF0.6795852366014918
aF0.6827410128711301
aF0.6859476972748875
aF0.6892056896468732
aF0.6925153684114287
aF0.69587718024577
aF0.6992915225204142
aF0.7027588362980863
aF0.7062795698889366
aF0.7098541785279712
aF0.7134831405210266
aF0.7171669658808365
aF0.7209061731185014
aF0.7247013615400204
aF0.7285533901723149
aa.