(lp0
(lp1
F0.5
aF0.51
aF0.52
aF0.53
aF0.54
aF0.55
aF0.56
aF0.5700000000000001
aF0.5800000000000001
aF0.5900000000000001
aF0.6000000000000001
aF0.6100000000000001
aF0.6200000000000001
aF0.6300000000000001
aF0.6400000000000001
aF0.6500000000000001
aF0.6600000000000001
aF0.6700000000000002
aF0.6800000000000002
aF0.6900000000000002
aF0.7000000000000002
aF0.7100000000000002
aF0.7200000000000002
aF0.7300000000000002
aF0.7400000000000002
aF0.7500000000000002
aF0.7600000000000002
aF0.7700000000000002
aF0.7800000000000002
aF0.7900000000000003
aF0.8000000000000003
aF0.8100000000000003
aF0.8200000000000003
aF0.8300000000000003
aF0.8400000000000003
aF0.8500000000000003
aF0.85354
aa(lp2
F0.8535533897278219
aF0.8535533901449006
aF0.8535533901681379
aF0.8535533900608375
aF0.8535533900491815
aF0.8535533899880384
aF0.8535533898931299
aF0.8535533897435744
aF0.8535533895653369
aF0.8535533903508203
aF0.8535533903343748
aF0.8535533900985698
aF0.8535533897263591
aF0.8535533890330627
aF0.8535533903016175
aF0.8535533901086946
aF0.8535533894451559
aF0.8535533898785598
aF0.8534946117702579
aF0.8525628664351814
aF0.8504892461369107
aF0.8472532897000886
aF0.8428220847846799
aF0.8371485114900477
aF0.8301685228290594
aF0.8217971261379146
aF0.811922307745464
aF0.8003958413108709
aF0.7870188098578965
aF0.7715178312124172
aF0.7535035870622455
aF0.732392350024148
aF0.7072398127860973
aF0.6763249148756616
aF0.6357667530549654
aF0.5705318872913
aF0.5043516044163175
aa.