(lp0
(lp1
I0
aF0.505
aF0.51
aF0.515
aF0.52
aF0.525
aF0.53
aF0.535
aF0.54
aF0.545
aF0.55
aF0.5549999999999999
aF0.5599999999999999
aF0.565
aF0.57
aF0.575
aF0.58
aF0.585
aF0.59
aF0.595
aF0.6
aF0.605
aF0.61
aF0.615
aF0.62
aF0.625
aF0.63
aF0.635
aF0.64
aF0.645
aF0.65
aF0.655
aF0.66
aF0.665
aF0.67
aF0.675
aF0.68
aF0.685
aF0.6900000000000001
aF0.6950000000000001
aF0.7000000000000001
aF0.7050000000000001
aF0.7100000000000001
aF0.7150000000000001
aF0.7200000000000001
aF0.7250000000000001
aF0.7300000000000001
aF0.7350000000000001
aF0.7400000000000001
aF0.7450000000000001
aF0.7500000000000001
aF0.7550000000000001
aF0.7600000000000001
aF0.7650000000000001
aF0.7700000000000001
aF0.7750000000000001
aF0.7800000000000001
aF0.7850000000000001
aF0.7900000000000001
aF0.7950000000000002
aF0.8000000000000002
aF0.8050000000000002
aF0.8100000000000002
aF0.8150000000000002
aF0.8200000000000002
aF0.8250000000000002
aF0.8300000000000002
aF0.8350000000000002
aF0.8400000000000002
aF0.8450000000000002
aF0.8500000000000002
aF0.8550000000000002
aF0.8600000000000002
aF0.8650000000000002
aF0.8700000000000002
aF0.8750000000000002
aF0.8800000000000002
aF0.8850000000000002
aF0.8900000000000002
aF0.8950000000000002
aF0.9000000000000002
aF0.9050000000000002
aF0.9100000000000003
aF0.9150000000000003
aF0.9200000000000003
aF0.9250000000000003
aF0.9300000000000003
aF0.9350000000000003
aF0.9400000000000003
aF0.9450000000000003
aF0.9500000000000003
aF0.9550000000000003
aF0.9600000000000003
aF0.9650000000000003
aF0.9700000000000003
aF0.9750000000000003
aF0.9800000000000003
aF0.9850000000000003
aF0.9900000000000003
aF0.9950000000000003
aF1.0000000000000004
aa(lp2
F0.7500000002611396
aF0.7499999964020161
aF0.7499999965563817
aF0.7499999950154924
aF0.749999999654494
aF0.7499999988075782
aF0.7499999986762423
aF0.7499999992653521
aF0.7499999991277656
aF0.7499999993671214
aF0.7499999989543507
aF0.7499999956056576
aF0.7499999977396601
aF0.7499999990844757
aF0.7499999989164661
aF0.7499999991842196
aF0.7499999996569704
aF0.7499999984640104
aF0.7499999995340789
aF0.7499999995931834
aF0.7499999957046698
aF0.7499999944647846
aF0.7499999994187752
aF0.7499999986576227
aF0.7499999988840378
aF0.7499999992268327
aF0.7499999994225216
aF0.7499999996849551
aF0.7499999998791249
aF0.7499999992899581
aF0.7499999982031456
aF0.7499999987258645
aF0.7499999967400377
aF0.7499999977369629
aF0.749999999075921
aF0.7499999979552469
aF0.7499999996710727
aF0.7499999995412754
aF0.749999999600145
aF0.7499999996459525
aF0.7499999995865669
aF0.7499999994946915
aF0.7499999994585085
aF0.7499999994940416
aF0.7499999994774985
aF0.7499999992668323
aF0.7499999997090956
aF0.7499999982104117
aF0.7499999995021941
aF0.7499999993960955
aF0.7499999976943101
aF0.7500499911063769
aF0.7501999134009723
aF0.7504495913889433
aF0.7507987229997068
aF0.7512468882392512
aF0.7517935643993814
aF0.7524381083421453
aF0.7531797739675772
aF0.7540177108950339
aF0.7549509669377865
aF0.7559785141566449
aF0.7570992012320851
aF0.7583118232494258
aF0.7596150969941433
aF0.7610076610500386
aF0.7624880933322803
aF0.7640549170011226
aF0.7657066037266123
aF0.7674415805941937
aF0.769258240117211
aF0.7711549346377016
aF0.773130003901913
aF0.7751817540773762
aF0.7773084868430606
aF0.7795084915831609
aF0.7817800518665946
aF0.7841214507880742
aF0.7865309743462218
aF0.7890069192318565
aF0.7915475939464578
aF0.7941513206803874
aF0.796816440713762
aF0.7995413149759445
aF0.8023243288405972
aF0.8051638899142515
aF0.8080584353436258
aF0.8110064275539338
aF0.8140063689853265
aF0.8170567761213826
aF0.8201562104103726
aF0.823303261819393
aF0.8264965533732725
aF0.829734741417064
aF0.8330165144713713
aF0.8363406003741705
aF0.8397057546836008
aF0.8431107690722658
aF0.8465544688831956
aF0.8500357123080099
aF0.8535533904312342
aa.