(lp0
(lp1
I0
aF0.505
aF0.51
aF0.515
aF0.52
aF0.525
aF0.53
aF0.535
aF0.54
aF0.545
aF0.55
aF0.5549999999999999
aF0.5599999999999999
aF0.565
aF0.57
aF0.575
aF0.58
aF0.585
aF0.59
aF0.595
aF0.6
aF0.605
aF0.61
aF0.615
aF0.62
aF0.625
aF0.63
aF0.635
aF0.64
aF0.645
aF0.65
aF0.655
aF0.66
aF0.665
aF0.67
aF0.675
aF0.68
aF0.685
aF0.6900000000000001
aF0.6950000000000001
aF0.7000000000000001
aF0.7050000000000001
aF0.7100000000000001
aF0.7150000000000001
aF0.7200000000000001
aF0.7250000000000001
aF0.7300000000000001
aF0.7350000000000001
aF0.7400000000000001
aF0.7450000000000001
aF0.7500000000000001
aF0.7550000000000001
aF0.7600000000000001
aF0.7650000000000001
aF0.7700000000000001
aF0.7750000000000001
aF0.7800000000000001
aF0.7850000000000001
aF0.7900000000000001
aF0.7950000000000002
aF0.8000000000000002
aF0.8050000000000002
aF0.8100000000000002
aF0.8150000000000002
aF0.8200000000000002
aF0.8250000000000002
aF0.8300000000000002
aF0.8350000000000002
aF0.8400000000000002
aF0.8450000000000002
aF0.8500000000000002
aF0.8550000000000002
aF0.8600000000000002
aF0.8650000000000002
aF0.8700000000000002
aF0.8750000000000002
aF0.8800000000000002
aF0.8850000000000002
aF0.8900000000000002
aF0.8950000000000002
aF0.9000000000000002
aF0.9050000000000002
aF0.9100000000000003
aF0.9150000000000003
aF0.9200000000000003
aF0.9250000000000003
aF0.9300000000000003
aF0.9350000000000003
aF0.9400000000000003
aF0.9450000000000003
aF0.9500000000000003
aF0.9550000000000003
aF0.9600000000000003
aF0.9650000000000003
aF0.9700000000000003
aF0.9750000000000003
aF0.9800000000000003
aF0.9850000000000003
aF0.9900000000000003
aF0.9950000000000003
aF1.0000000000000004
aa(lp2
F0.5624999997755146
aF0.5641605247570594
aF0.5658210579623124
aF0.5674815966676727
aF0.569142133023101
aF0.5708026670271493
aF0.5724631960561001
aF0.5741237295032161
aF0.5757842671273818
aF0.5774448035778852
aF0.5791053282451433
aF0.5807658679702841
aF0.5824264045987699
aF0.5840869276795078
aF0.5857474732644185
aF0.5874080042628671
aF0.5890685375524154
aF0.5907290738159925
aF0.5923895972883818
aF0.594050135518479
aF0.595710672028838
aF0.5973712055979628
aF0.5990317366837421
aF0.6006922685714151
aF0.6023528096248031
aF0.6040133437385452
aF0.6056738743230012
aF0.6073344083247482
aF0.608994942473018
aF0.6106554762124133
aF0.6123160098486615
aF0.6139765433347929
aF0.6156370761858717
aF0.6172976096012304
aF0.6189581450084312
aF0.6206186831304664
aF0.6222792162102522
aF0.6239397491090058
aF0.6256002806911445
aF0.6272608112308578
aF0.6289213427034277
aF0.6305818807939285
aF0.6322424205285839
aF0.6339029541702671
aF0.6355634879697717
aF0.6372240227638473
aF0.6388845484651291
aF0.6405450858591096
aF0.6422056160762849
aF0.6438661585810358
aF0.645526693197898
aF0.6471872166058866
aF0.648847760119414
aF0.650508295060847
aF0.6521688289651556
aF0.6538293629113936
aF0.6554898952022163
aF0.6571504295217585
aF0.658810964578552
aF0.6604714925429476
aF0.6621320211240045
aF0.6637925634127798
aF0.6654530942818828
aF0.6671136299828806
aF0.668774166472179
aF0.6704346896709339
aF0.672095228293387
aF0.6737557670691159
aF0.675416304022666
aF0.6770768370444133
aF0.6787373636355323
aF0.6803979049857043
aF0.6820584382608899
aF0.6837189723757031
aF0.6853794964625075
aF0.6870400408405342
aF0.6887005709524118
aF0.6903611079080306
aF0.6920216432851565
aF0.6936821677784668
aF0.6953427044102638
aF0.6970032407554253
aF0.6986637739954715
aF0.7003243064094632
aF0.7019848444061689
aF0.7036453777752043
aF0.7053059120017362
aF0.7069664373398034
aF0.7086269821652548
aF0.7102875159220564
aF0.7119480494252695
aF0.7136085814893935
aF0.7152691182436193
aF0.7169296472129256
aF0.7185901826842997
aF0.7202507166955462
aF0.7219112539635788
aF0.7235717878759218
aF0.7252323189843247
aF0.726892854588161
aF0.7285533901723145
aa.