(lp0
(lp1
F0.5
aF0.51
aF0.52
aF0.53
aF0.54
aF0.55
aF0.56
aF0.5700000000000001
aF0.5800000000000001
aF0.5900000000000001
aF0.6000000000000001
aF0.6100000000000001
aF0.6200000000000001
aF0.6300000000000001
aF0.6400000000000001
aF0.6500000000000001
aF0.6600000000000001
aF0.6700000000000002
aF0.6800000000000002
aF0.6900000000000002
aF0.7000000000000002
aF0.7100000000000002
aF0.7200000000000002
aF0.7300000000000002
aF0.7400000000000002
aF0.7500000000000002
aF0.7600000000000002
aF0.7700000000000002
aF0.7800000000000002
aF0.7900000000000003
aF0.8000000000000003
aF0.8100000000000003
aF0.8200000000000003
aF0.8300000000000003
aF0.8400000000000003
aF0.8500000000000003
aF0.85355
aa(lp2
F1.5000000003805267
aF1.5000000011890136
aF1.5000000004261471
aF1.500000000718869
aF1.5000000010747843
aF1.5000000022852715
aF1.500000000316429
aF1.5000000014661496
aF1.5000000008176777
aF1.500000000710775
aF1.5000000012016064
aF1.5000000001125837
aF1.500000001774228
aF1.5000000014278332
aF1.5000000014323116
aF1.5000000001457146
aF1.5000000006759537
aF1.5000000012664818
aF1.5000000008401495
aF1.500000000592861
aF1.5000000010682921
aF1.5000000003054432
aF1.5000000006927428
aF1.500000001187233
aF1.5000000003859488
aF1.49999999941188
aF1.4752217205360938
aF1.4490012339352039
aF1.4213148949635566
aF1.392140659873565
aF1.3613911050828786
aF1.3288398214542472
aF1.2930813541118984
aF1.2493610884554456
aF1.1920031839126406
aF1.0997471541072465
aF1.0030967742090096
aa.