(lp0
(lp1
I2
aI3
aI4
aI5
aI6
aI7
aI8
aI9
aI10
aa(lp2
F0.8535534099761647
aF0.8047378681478023
aF0.7803300871239448
aF0.7656854253336312
aF0.7559223180255269
aF0.748948669755925
aF0.7437184336915987
aF0.7396504726126
aF0.736396103246273
aa.