(lp0
(lp1
F0.5
aF0.51
aF0.52
aF0.53
aF0.54
aF0.55
aF0.56
aF0.5700000000000001
aF0.5800000000000001
aF0.5900000000000001
aF0.6000000000000001
aF0.6100000000000001
aF0.6200000000000001
aF0.6300000000000001
aF0.6400000000000001
aF0.6500000000000001
aF0.6600000000000001
aF0.6700000000000002
aF0.6800000000000002
aF0.6900000000000002
aF0.7000000000000002
aF0.7100000000000002
aF0.7200000000000002
aF0.7300000000000002
aF0.7400000000000002
aF0.7500000000000002
aF0.7600000000000002
aF0.7700000000000002
aF0.7800000000000002
aF0.7900000000000003
aF0.8000000000000003
aF0.8100000000000003
aF0.8200000000000003
aF0.8300000000000003
aF0.8400000000000003
aF0.8500000000000003
aF0.8600000000000003
aF0.8700000000000003
aF0.8800000000000003
aF0.8900000000000003
aF0.9000000000000004
aF0.9100000000000004
aF0.9200000000000004
aF0.9300000000000004
aF0.9400000000000004
aF0.9500000000000004
aF0.9600000000000004
aF0.9700000000000004
aF0.9800000000000004
aF0.9900000000000004
aF1.0000000000000004
aa(lp2
F0.9999999966863914
aF0.9900000041983921
aF0.9800000114564945
aF0.970000011226217
aF0.9600000108620418
aF0.9500000099306555
aF0.9400000085883642
aF0.9300000071225598
aF0.9200000057520927
aF0.910000004577604
aF0.900000003609614
aF0.8900000027976002
aF0.8800000020864287
aF0.8700000014408389
aF0.860000000839831
aF0.8500000002792099
aF0.839999999768468
aF0.8299999993256352
aF0.8199999990634059
aF0.8099999992510695
aF0.7999999994832474
aF0.7899999997538142
aF0.7800000001466814
aF0.7700000012886055
aF0.7600000011750552
aF0.7500000011225313
aF0.7400000011052643
aF0.7300000011054755
aF0.7200000011352148
aF0.710000001215887
aF0.7000000012919843
aF0.6900000013642372
aF0.6800000014336798
aF0.6700000015017351
aF0.6600000016512437
aF0.6500000018405636
aF0.6400000020348918
aF0.6300000022371465
aF0.620000002451389
aF0.6100000026831975
aF0.6000000029332135
aF0.5900000031758235
aF0.5800000034428954
aF0.5700000037246189
aF0.5600000039979197
aF0.5500000042132257
aF0.5400000042812865
aF0.5300000042755117
aF0.5200000039537647
aF0.5100000028815382
aF0.5000000011003434
aa.