(lp0
(lp1
F0.5
aF0.51
aF0.52
aF0.53
aF0.54
aF0.55
aF0.56
aF0.5700000000000001
aF0.5800000000000001
aF0.5900000000000001
aF0.6000000000000001
aF0.6100000000000001
aF0.6200000000000001
aF0.6300000000000001
aF0.6400000000000001
aF0.6500000000000001
aF0.6600000000000001
aF0.6700000000000002
aF0.6800000000000002
aF0.6900000000000002
aF0.7000000000000002
aF0.7100000000000002
aF0.7200000000000002
aF0.7300000000000002
aF0.7400000000000002
aF0.7500000000000002
aF0.7600000000000002
aF0.7700000000000002
aF0.7800000000000002
aF0.7900000000000003
aF0.8000000000000003
aF0.8100000000000003
aF0.8200000000000003
aF0.8300000000000003
aF0.8400000000000003
aF0.8500000000000003
aF0.85355
aa(lp2
F0.8535533898966915
aF0.853411940174154
aF0.8529872517855644
aF0.8522782990204294
aF0.8512833603250951
aF0.8499999990771995
aF0.8484250269389528
aF0.8465544679655582
aF0.8443835069103608
aF0.8419064197519879
aF0.8391164990252552
aF0.8360059521854255
aF0.8325657821391336
aF0.8287856437585677
aF0.8246536612307402
aF0.8201562110403446
aF0.8152776543954228
aF0.8099999995830547
aF0.804302480917446
aF0.798161029839201
aF0.7915475945555546
aF0.7844292527790337
aF0.776767049893347
aF0.7685144315510316
aF0.7596150990098365
aF0.7500000006336148
aF0.7395829707738352
aF0.7282542441484668
aF0.715870331132446
aF0.702237484165275
aF0.6870828692012768
aF0.6700000000385715
aF0.6503329637930252
aF0.6268857762865049
aF0.5969535984904797
aF0.5500000041221385
aF0.5015483868035395
aa.